; Function Attrs: mustprogress uwtable
define void @_ZN4pkpy15CodeEmitContext9emit_exprEv(ptr noundef nonnull align 8 dereferenceable(232) %0) local_unnamed_addr #5 align 2 personality ptr @__gxx_personality_v0 {
  %2 = getelementptr inbounds nuw i8, ptr %0, i64 40
  %3 = getelementptr inbounds nuw i8, ptr %0, i64 48
  %4 = load ptr, ptr %3, align 8
  %5 = load ptr, ptr %2, align 8
  %6 = ptrtoint ptr %4 to i64
  %7 = ptrtoint ptr %5 to i64
  %8 = sub i64 %6, %7
  %.not = icmp eq i64 %8, 8
  br i1 %.not, label %14, label %9

9:                                                ; preds = %1
  %10 = tail call ptr @__cxa_allocate_exception(i64 16) #32
  invoke void @_ZNSt13runtime_errorC1EPKc(ptr noundef nonnull align 8 dereferenceable(16) %10, ptr noundef nonnull @.str.4)
          to label %11 unwind label %12

11:                                               ; preds = %9
  tail call void @__cxa_throw(ptr nonnull %10, ptr nonnull @_ZTISt13runtime_error, ptr nonnull @_ZNSt13runtime_errorD1Ev) #29
  unreachable

12:                                               ; preds = %9
  %13 = landingpad { ptr, i32 }
          cleanup
  tail call void @__cxa_free_exception(ptr nonnull %10) #32
  br label %32

14:                                               ; preds = %1
  %15 = getelementptr inbounds i8, ptr %4, i64 -8
  %16 = load ptr, ptr %15, align 8, !noalias !13
  store ptr null, ptr %15, align 8, !noalias !13
  %17 = load ptr, ptr %3, align 8, !noalias !13
  %18 = getelementptr inbounds i8, ptr %17, i64 -8
  store ptr %18, ptr %3, align 8, !noalias !13
  %19 = load ptr, ptr %18, align 8, !noalias !13
  %.not.i.i.i.i.i = icmp eq ptr %19, null
  br i1 %.not.i.i.i.i.i, label %_ZN4pkpy5stackINS_14unique_ptr_128INS_4ExprEEESt6vectorIS3_SaIS3_EEE4popxEv.exit, label %20

20:                                               ; preds = %14
  %21 = load ptr, ptr %19, align 8, !noalias !13
  %22 = load ptr, ptr %21, align 8, !noalias !13
  tail call void %22(ptr noundef nonnull align 8 dereferenceable(12) %19) #32, !noalias !13
  %23 = load ptr, ptr %18, align 8, !noalias !13
  tail call void @_ZN4pkpy15pool128_deallocEPv(ptr noundef %23) #32, !noalias !13
  store ptr null, ptr %18, align 8, !noalias !13
  br label %_ZN4pkpy5stackINS_14unique_ptr_128INS_4ExprEEESt6vectorIS3_SaIS3_EEE4popxEv.exit

_ZN4pkpy5stackINS_14unique_ptr_128INS_4ExprEEESt6vectorIS3_SaIS3_EEE4popxEv.exit: ; preds = %14, %20
  %24 = load ptr, ptr %16, align 8
  %25 = getelementptr inbounds nuw i8, ptr %24, i64 16
  %26 = load ptr, ptr %25, align 8
  invoke void %26(ptr noundef nonnull align 8 dereferenceable(12) %16, ptr noundef nonnull %0)
          to label %_ZN4pkpy14unique_ptr_128INS_4ExprEED2Ev.exit unwind label %_ZN4pkpy14unique_ptr_128INS_4ExprEED2Ev.exit5

_ZN4pkpy14unique_ptr_128INS_4ExprEED2Ev.exit:     ; preds = %_ZN4pkpy5stackINS_14unique_ptr_128INS_4ExprEEESt6vectorIS3_SaIS3_EEE4popxEv.exit
  %27 = load ptr, ptr %16, align 8
  %28 = load ptr, ptr %27, align 8
  tail call void %28(ptr noundef nonnull align 8 dereferenceable(12) %16) #32
  tail call void @_ZN4pkpy15pool128_deallocEPv(ptr noundef nonnull %16) #32
  ret void

_ZN4pkpy14unique_ptr_128INS_4ExprEED2Ev.exit5:    ; preds = %_ZN4pkpy5stackINS_14unique_ptr_128INS_4ExprEEESt6vectorIS3_SaIS3_EEE4popxEv.exit
  %29 = landingpad { ptr, i32 }
          cleanup
  %30 = load ptr, ptr %16, align 8
  %31 = load ptr, ptr %30, align 8
  tail call void %31(ptr noundef nonnull align 8 dereferenceable(12) %16) #32
  tail call void @_ZN4pkpy15pool128_deallocEPv(ptr noundef nonnull %16) #32
  br label %32

32:                                               ; preds = %_ZN4pkpy14unique_ptr_128INS_4ExprEED2Ev.exit5, %12
  %.pn = phi { ptr, i32 } [ %13, %12 ], [ %29, %_ZN4pkpy14unique_ptr_128INS_4ExprEED2Ev.exit5 ]
  resume { ptr, i32 } %.pn
}